; Function Attrs: nofree norecurse nosync nounwind memory(readwrite, inaccessiblemem: none) uwtable
define dso_local i32 @LZ4_compress_continue(ptr noundef %0, ptr noundef %1, ptr noundef %2, i32 noundef %3) local_unnamed_addr #1 {
  %5 = icmp ugt i32 %3, 2113929216
  br i1 %5, label %LZ4_compressBound.exit, label %6

6:                                                ; preds = %4
  %7 = udiv i32 %3, 255
  %8 = add nuw nsw i32 %3, 16
  %9 = add nuw nsw i32 %8, %7
  br label %LZ4_compressBound.exit

LZ4_compressBound.exit:                           ; preds = %4, %6
  %10 = phi i32 [ %9, %6 ], [ 0, %4 ]
  %11 = tail call i32 @LZ4_compress_fast_continue(ptr noundef %0, ptr noundef %1, ptr noundef %2, i32 noundef %3, i32 noundef %10, i32 noundef 1)
  ret i32 %11
}